; ModuleID = '32/2020.c'
source_filename = "32/2020.c"
target datalayout = "e-m:e-p270:32:32-p271:32:32-p272:64:64-i64:64-f80:128-n8:16:32:64-S128"
target triple = "x86_64-pc-linux-gnu"

@.str = private unnamed_addr constant [3 x i8] c"%d\00", align 1
@.str.1 = private unnamed_addr constant [3 x i8] c"%s\00", align 1
@.str.2 = private unnamed_addr constant [3 x i8] c"%c\00", align 1
@.str.3 = private unnamed_addr constant [2 x i8] c"\0A\00", align 1

; Function Attrs: noinline nounwind uwtable
define dso_local void @main() #0 {
  %1 = alloca i32, align 4
  %2 = alloca i32, align 4
  %3 = alloca i32, align 4
  %4 = alloca i32, align 4
  %5 = alloca i32, align 4
  %6 = alloca i32, align 4
  %7 = alloca i8**, align 8
  store i32 20, i32* %1, align 4
  %8 = load i32, i32* %1, align 4
  %9 = sext i32 %8 to i64
  %10 = mul i64 %9, 8
  %11 = call noalias i8* @malloc(i64 %10) #4
  %12 = bitcast i8* %11 to i8**
  store i8** %12, i8*** %7, align 8
  %13 = call i32 (i8*, ...) @__isoc99_scanf(i8* getelementptr inbounds ([3 x i8], [3 x i8]* @.str, i64 0, i64 0), i32* %1)
  %14 = load i8**, i8*** %7, align 8
  %15 = icmp ne i8** %14, null
  br i1 %15, label %16, label %247

16:                                               ; preds = %0
  store i32 0, i32* %2, align 4
  br label %17

17:                                               ; preds = %26, %16
  %18 = load i32, i32* %2, align 4
  %19 = icmp slt i32 %18, 20
  br i1 %19, label %20, label %29

20:                                               ; preds = %17
  %21 = call noalias i8* @malloc(i64 100) #4
  %22 = load i8**, i8*** %7, align 8
  %23 = load i32, i32* %2, align 4
  %24 = sext i32 %23 to i64
  %25 = getelementptr inbounds i8*, i8** %22, i64 %24
  store i8* %21, i8** %25, align 8
  br label %26

26:                                               ; preds = %20
  %27 = load i32, i32* %2, align 4
  %28 = add nsw i32 %27, 1
  store i32 %28, i32* %2, align 4
  br label %17

29:                                               ; preds = %17
  store i32 0, i32* %2, align 4
  br label %30

30:                                               ; preds = %243, %29
  %31 = load i32, i32* %2, align 4
  %32 = load i32, i32* %1, align 4
  %33 = mul nsw i32 2, %32
  %34 = icmp slt i32 %31, %33
  br i1 %34, label %35, label %246

35:                                               ; preds = %30
  %36 = load i8**, i8*** %7, align 8
  %37 = load i32, i32* %2, align 4
  %38 = sext i32 %37 to i64
  %39 = getelementptr inbounds i8*, i8** %36, i64 %38
  %40 = load i8*, i8** %39, align 8
  %41 = call i32 (i8*, ...) @__isoc99_scanf(i8* getelementptr inbounds ([3 x i8], [3 x i8]* @.str.1, i64 0, i64 0), i8* %40)
  %42 = load i32, i32* %2, align 4
  %43 = srem i32 %42, 2
  %44 = icmp eq i32 %43, 1
  br i1 %44, label %45, label %242

45:                                               ; preds = %35
  %46 = load i8**, i8*** %7, align 8
  %47 = load i32, i32* %2, align 4
  %48 = sub nsw i32 %47, 1
  %49 = sext i32 %48 to i64
  %50 = getelementptr inbounds i8*, i8** %46, i64 %49
  %51 = load i8*, i8** %50, align 8
  %52 = call i64 @strlen(i8* %51) #5
  %53 = trunc i64 %52 to i32
  store i32 %53, i32* %4, align 4
  %54 = load i8**, i8*** %7, align 8
  %55 = load i32, i32* %2, align 4
  %56 = sext i32 %55 to i64
  %57 = getelementptr inbounds i8*, i8** %54, i64 %56
  %58 = load i8*, i8** %57, align 8
  %59 = call i64 @strlen(i8* %58) #5
  %60 = trunc i64 %59 to i32
  store i32 %60, i32* %5, align 4
  %61 = load i32, i32* %4, align 4
  %62 = sub nsw i32 %61, 1
  store i32 %62, i32* %3, align 4
  br label %63

63:                                               ; preds = %196, %45
  %64 = load i32, i32* %3, align 4
  %65 = icmp sge i32 %64, 0
  br i1 %65, label %66, label %199

66:                                               ; preds = %63
  %67 = load i32, i32* %3, align 4
  %68 = load i32, i32* %4, align 4
  %69 = sub nsw i32 %67, %68
  %70 = load i32, i32* %5, align 4
  %71 = add nsw i32 %69, %70
  %72 = icmp sge i32 %71, 0
  br i1 %72, label %73, label %141

73:                                               ; preds = %66
  %74 = load i8**, i8*** %7, align 8
  %75 = load i32, i32* %2, align 4
  %76 = sub nsw i32 %75, 1
  %77 = sext i32 %76 to i64
  %78 = getelementptr inbounds i8*, i8** %74, i64 %77
  %79 = load i8*, i8** %78, align 8
  %80 = load i32, i32* %3, align 4
  %81 = sext i32 %80 to i64
  %82 = getelementptr inbounds i8, i8* %79, i64 %81
  %83 = load i8, i8* %82, align 1
  %84 = sext i8 %83 to i32
  %85 = load i8**, i8*** %7, align 8
  %86 = load i32, i32* %2, align 4
  %87 = sext i32 %86 to i64
  %88 = getelementptr inbounds i8*, i8** %85, i64 %87
  %89 = load i8*, i8** %88, align 8
  %90 = load i32, i32* %3, align 4
  %91 = load i32, i32* %4, align 4
  %92 = sub nsw i32 %90, %91
  %93 = load i32, i32* %5, align 4
  %94 = add nsw i32 %92, %93
  %95 = sext i32 %94 to i64
  %96 = getelementptr inbounds i8, i8* %89, i64 %95
  %97 = load i8, i8* %96, align 1
  %98 = sext i8 %97 to i32
  %99 = sub nsw i32 %84, %98
  store i32 %99, i32* %6, align 4
  %100 = load i32, i32* %6, align 4
  %101 = icmp slt i32 %100, 0
  br i1 %101, label %102, label %127

102:                                              ; preds = %73
  %103 = load i32, i32* %6, align 4
  %104 = add nsw i32 58, %103
  %105 = trunc i32 %104 to i8
  %106 = load i8**, i8*** %7, align 8
  %107 = load i32, i32* %2, align 4
  %108 = sub nsw i32 %107, 1
  %109 = sext i32 %108 to i64
  %110 = getelementptr inbounds i8*, i8** %106, i64 %109
  %111 = load i8*, i8** %110, align 8
  %112 = load i32, i32* %3, align 4
  %113 = sext i32 %112 to i64
  %114 = getelementptr inbounds i8, i8* %111, i64 %113
  store i8 %105, i8* %114, align 1
  %115 = load i8**, i8*** %7, align 8
  %116 = load i32, i32* %2, align 4
  %117 = sub nsw i32 %116, 1
  %118 = sext i32 %117 to i64
  %119 = getelementptr inbounds i8*, i8** %115, i64 %118
  %120 = load i8*, i8** %119, align 8
  %121 = load i32, i32* %3, align 4
  %122 = sub nsw i32 %121, 1
  %123 = sext i32 %122 to i64
  %124 = getelementptr inbounds i8, i8* %120, i64 %123
  %125 = load i8, i8* %124, align 1
  %126 = add i8 %125, -1
  store i8 %126, i8* %124, align 1
  br label %140

127:                                              ; preds = %73
  %128 = load i32, i32* %6, align 4
  %129 = add nsw i32 48, %128
  %130 = trunc i32 %129 to i8
  %131 = load i8**, i8*** %7, align 8
  %132 = load i32, i32* %2, align 4
  %133 = sub nsw i32 %132, 1
  %134 = sext i32 %133 to i64
  %135 = getelementptr inbounds i8*, i8** %131, i64 %134
  %136 = load i8*, i8** %135, align 8
  %137 = load i32, i32* %3, align 4
  %138 = sext i32 %137 to i64
  %139 = getelementptr inbounds i8, i8* %136, i64 %138
  store i8 %130, i8* %139, align 1
  br label %140

140:                                              ; preds = %127, %102
  br label %195

141:                                              ; preds = %66
  %142 = load i8**, i8*** %7, align 8
  %143 = load i32, i32* %2, align 4
  %144 = sub nsw i32 %143, 1
  %145 = sext i32 %144 to i64
  %146 = getelementptr inbounds i8*, i8** %142, i64 %145
  %147 = load i8*, i8** %146, align 8
  %148 = load i32, i32* %3, align 4
  %149 = sext i32 %148 to i64
  %150 = getelementptr inbounds i8, i8* %147, i64 %149
  %151 = load i8, i8* %150, align 1
  %152 = sext i8 %151 to i32
  %153 = sub nsw i32 %152, 48
  store i32 %153, i32* %6, align 4
  %154 = load i32, i32* %6, align 4
  %155 = icmp slt i32 %154, 0
  br i1 %155, label %156, label %181

156:                                              ; preds = %141
  %157 = load i32, i32* %6, align 4
  %158 = add nsw i32 58, %157
  %159 = trunc i32 %158 to i8
  %160 = load i8**, i8*** %7, align 8
  %161 = load i32, i32* %2, align 4
  %162 = sub nsw i32 %161, 1
  %163 = sext i32 %162 to i64
  %164 = getelementptr inbounds i8*, i8** %160, i64 %163
  %165 = load i8*, i8** %164, align 8
  %166 = load i32, i32* %3, align 4
  %167 = sext i32 %166 to i64
  %168 = getelementptr inbounds i8, i8* %165, i64 %167
  store i8 %159, i8* %168, align 1
  %169 = load i8**, i8*** %7, align 8
  %170 = load i32, i32* %2, align 4
  %171 = sub nsw i32 %170, 1
  %172 = sext i32 %171 to i64
  %173 = getelementptr inbounds i8*, i8** %169, i64 %172
  %174 = load i8*, i8** %173, align 8
  %175 = load i32, i32* %3, align 4
  %176 = sub nsw i32 %175, 1
  %177 = sext i32 %176 to i64
  %178 = getelementptr inbounds i8, i8* %174, i64 %177
  %179 = load i8, i8* %178, align 1
  %180 = add i8 %179, -1
  store i8 %180, i8* %178, align 1
  br label %194

181:                                              ; preds = %141
  %182 = load i32, i32* %6, align 4
  %183 = add nsw i32 48, %182
  %184 = trunc i32 %183 to i8
  %185 = load i8**, i8*** %7, align 8
  %186 = load i32, i32* %2, align 4
  %187 = sub nsw i32 %186, 1
  %188 = sext i32 %187 to i64
  %189 = getelementptr inbounds i8*, i8** %185, i64 %188
  %190 = load i8*, i8** %189, align 8
  %191 = load i32, i32* %3, align 4
  %192 = sext i32 %191 to i64
  %193 = getelementptr inbounds i8, i8* %190, i64 %192
  store i8 %184, i8* %193, align 1
  br label %194

194:                                              ; preds = %181, %156
  br label %195

195:                                              ; preds = %194, %140
  br label %196

196:                                              ; preds = %195
  %197 = load i32, i32* %3, align 4
  %198 = add nsw i32 %197, -1
  store i32 %198, i32* %3, align 4
  br label %63

199:                                              ; preds = %63
  store i32 0, i32* %6, align 4
  br label %200

200:                                              ; preds = %215, %199
  %201 = load i8**, i8*** %7, align 8
  %202 = load i32, i32* %2, align 4
  %203 = sub nsw i32 %202, 1
  %204 = sext i32 %203 to i64
  %205 = getelementptr inbounds i8*, i8** %201, i64 %204
  %206 = load i8*, i8** %205, align 8
  %207 = load i32, i32* %6, align 4
  %208 = sext i32 %207 to i64
  %209 = getelementptr inbounds i8, i8* %206, i64 %208
  %210 = load i8, i8* %209, align 1
  %211 = sext i8 %210 to i32
  %212 = icmp ne i32 %211, 48
  br i1 %212, label %213, label %214

213:                                              ; preds = %200
  br label %218

214:                                              ; preds = %200
  br label %215

215:                                              ; preds = %214
  %216 = load i32, i32* %6, align 4
  %217 = add nsw i32 %216, 1
  store i32 %217, i32* %6, align 4
  br label %200

218:                                              ; preds = %213
  %219 = load i32, i32* %6, align 4
  store i32 %219, i32* %3, align 4
  br label %220

220:                                              ; preds = %237, %218
  %221 = load i32, i32* %3, align 4
  %222 = load i32, i32* %4, align 4
  %223 = icmp slt i32 %221, %222
  br i1 %223, label %224, label %240

224:                                              ; preds = %220
  %225 = load i8**, i8*** %7, align 8
  %226 = load i32, i32* %2, align 4
  %227 = sub nsw i32 %226, 1
  %228 = sext i32 %227 to i64
  %229 = getelementptr inbounds i8*, i8** %225, i64 %228
  %230 = load i8*, i8** %229, align 8
  %231 = load i32, i32* %3, align 4
  %232 = sext i32 %231 to i64
  %233 = getelementptr inbounds i8, i8* %230, i64 %232
  %234 = load i8, i8* %233, align 1
  %235 = sext i8 %234 to i32
  %236 = call i32 (i8*, ...) @printf(i8* getelementptr inbounds ([3 x i8], [3 x i8]* @.str.2, i64 0, i64 0), i32 %235)
  br label %237

237:                                              ; preds = %224
  %238 = load i32, i32* %3, align 4
  %239 = add nsw i32 %238, 1
  store i32 %239, i32* %3, align 4
  br label %220

240:                                              ; preds = %220
  %241 = call i32 (i8*, ...) @printf(i8* getelementptr inbounds ([2 x i8], [2 x i8]* @.str.3, i64 0, i64 0))
  br label %242

242:                                              ; preds = %240, %35
  br label %243

243:                                              ; preds = %242
  %244 = load i32, i32* %2, align 4
  %245 = add nsw i32 %244, 1
  store i32 %245, i32* %2, align 4
  br label %30

246:                                              ; preds = %30
  br label %247

247:                                              ; preds = %246, %0
  ret void
}

; Function Attrs: nounwind
declare dso_local noalias i8* @malloc(i64) #1

declare dso_local i32 @__isoc99_scanf(i8*, ...) #2

; Function Attrs: nounwind readonly
declare dso_local i64 @strlen(i8*) #3

declare dso_local i32 @printf(i8*, ...) #2


!llvm.module.flags = !{!0}
!llvm.ident = !{!1}

!0 = !{i32 1, !"wchar_size", i32 4}
!1 = !{!"clang version 10.0.0-4ubuntu1 "}
